target datalayout = "e-m:e-p270:32:32-p271:32:32-p272:64:64-i64:64-i128:128-f80:128-n8:16:32:64-S128"
target triple = "x86_64-pc-linux-gnu"

%struct.UEnumeration = type { ptr, ptr, ptr, ptr, ptr, ptr, ptr }
%struct.UConverterSelector = type { ptr, ptr, i32, ptr, i32, i32, ptr, i8, i8 }
%struct.Enumerator = type { ptr, i16, i16, ptr }

; Function Attrs: inlinehint mustprogress nounwind uwtable
define internal noundef signext i8 @_ZL9U_FAILURE10UErrorCode(i32 noundef %0) #1 {
  %2 = alloca i32, align 4
  store i32 %0, ptr %2, align 4, !tbaa !16
  %3 = load i32, ptr %2, align 4, !tbaa !16
  %4 = icmp sgt i32 %3, 0
  %5 = zext i1 %4 to i8
  ret i8 %5
}

; Function Attrs: mustprogress nounwind uwtable
define internal noundef ptr @_ZL21ucnvsel_next_encodingP12UEnumerationPiP10UErrorCode(ptr noundef %0, ptr noundef %1, ptr noundef %2) #4 {
  %4 = alloca ptr, align 8
  %5 = alloca ptr, align 8
  %6 = alloca ptr, align 8
  %7 = alloca ptr, align 8
  %8 = alloca i16, align 2
  %9 = alloca ptr, align 8
  %10 = alloca ptr, align 8
  %11 = alloca i32, align 4
  store ptr %0, ptr %5, align 8, !tbaa !107
  store ptr %1, ptr %6, align 8, !tbaa !65
  store ptr %2, ptr %7, align 8, !tbaa !15
  %12 = load ptr, ptr %7, align 8, !tbaa !15
  %13 = load i32, ptr %12, align 4, !tbaa !16
  %14 = call noundef signext i8 @_ZL9U_FAILURE10UErrorCode(i32 noundef %13)
  %15 = icmp ne i8 %14, 0
  br i1 %15, label %16, label %17

16:                                               ; preds = %3
  store ptr null, ptr %4, align 8
  br label %70

17:                                               ; preds = %3
  call void @llvm.lifetime.start.p0(i64 2, ptr %8) #11
  %18 = load ptr, ptr %5, align 8, !tbaa !107
  %19 = getelementptr inbounds nuw %struct.UEnumeration, ptr %18, i32 0, i32 1
  %20 = load ptr, ptr %19, align 8, !tbaa !91
  %21 = getelementptr inbounds nuw %struct.Enumerator, ptr %20, i32 0, i32 2
  %22 = load i16, ptr %21, align 2, !tbaa !86
  store i16 %22, ptr %8, align 2, !tbaa !79
  call void @llvm.lifetime.start.p0(i64 8, ptr %9) #11
  call void @llvm.lifetime.start.p0(i64 8, ptr %10) #11
  %23 = load i16, ptr %8, align 2, !tbaa !79
  %24 = sext i16 %23 to i32
  %25 = load ptr, ptr %5, align 8, !tbaa !107
  %26 = getelementptr inbounds nuw %struct.UEnumeration, ptr %25, i32 0, i32 1
  %27 = load ptr, ptr %26, align 8, !tbaa !91
  %28 = getelementptr inbounds nuw %struct.Enumerator, ptr %27, i32 0, i32 1
  %29 = load i16, ptr %28, align 8, !tbaa !87
  %30 = sext i16 %29 to i32
  %31 = icmp sge i32 %24, %30
  br i1 %31, label %32, label %33

32:                                               ; preds = %17
  store ptr null, ptr %4, align 8
  store i32 1, ptr %11, align 4
  br label %69

33:                                               ; preds = %17
  %34 = load ptr, ptr %5, align 8, !tbaa !107
  %35 = getelementptr inbounds nuw %struct.UEnumeration, ptr %34, i32 0, i32 1
  %36 = load ptr, ptr %35, align 8, !tbaa !91
  %37 = getelementptr inbounds nuw %struct.Enumerator, ptr %36, i32 0, i32 3
  %38 = load ptr, ptr %37, align 8, !tbaa !88
  store ptr %38, ptr %9, align 8, !tbaa !36
  %39 = load ptr, ptr %9, align 8, !tbaa !36
  %40 = getelementptr inbounds nuw %struct.UConverterSelector, ptr %39, i32 0, i32 3
  %41 = load ptr, ptr %40, align 8, !tbaa !18
  %42 = load ptr, ptr %5, align 8, !tbaa !107
  %43 = getelementptr inbounds nuw %struct.UEnumeration, ptr %42, i32 0, i32 1
  %44 = load ptr, ptr %43, align 8, !tbaa !91
  %45 = getelementptr inbounds nuw %struct.Enumerator, ptr %44, i32 0, i32 0
  %46 = load ptr, ptr %45, align 8, !tbaa !84
  %47 = load i16, ptr %8, align 2, !tbaa !79
  %48 = sext i16 %47 to i64
  %49 = getelementptr inbounds i16, ptr %46, i64 %48
  %50 = load i16, ptr %49, align 2, !tbaa !79
  %51 = sext i16 %50 to i64
  %52 = getelementptr inbounds ptr, ptr %41, i64 %51
  %53 = load ptr, ptr %52, align 8, !tbaa !23
  store ptr %53, ptr %10, align 8, !tbaa !23
  %54 = load ptr, ptr %5, align 8, !tbaa !107
  %55 = getelementptr inbounds nuw %struct.UEnumeration, ptr %54, i32 0, i32 1
  %56 = load ptr, ptr %55, align 8, !tbaa !91
  %57 = getelementptr inbounds nuw %struct.Enumerator, ptr %56, i32 0, i32 2
  %58 = load i16, ptr %57, align 2, !tbaa !86
  %59 = add i16 %58, 1
  store i16 %59, ptr %57, align 2, !tbaa !86
  %60 = load ptr, ptr %6, align 8, !tbaa !65
  %61 = icmp ne ptr %60, null
  br i1 %61, label %62, label %67

62:                                               ; preds = %33
  %63 = load ptr, ptr %10, align 8, !tbaa !23
  %64 = call i64 @strlen(ptr noundef %63) #13
  %65 = trunc i64 %64 to i32
  %66 = load ptr, ptr %6, align 8, !tbaa !65
  store i32 %65, ptr %66, align 4, !tbaa !9
  br label %67

67:                                               ; preds = %62, %33
  %68 = load ptr, ptr %10, align 8, !tbaa !23
  store ptr %68, ptr %4, align 8
  store i32 1, ptr %11, align 4
  br label %69

69:                                               ; preds = %67, %32
  call void @llvm.lifetime.end.p0(i64 8, ptr %10) #11
  call void @llvm.lifetime.end.p0(i64 8, ptr %9) #11
  call void @llvm.lifetime.end.p0(i64 2, ptr %8) #11
  br label %70

70:                                               ; preds = %69, %16
  %71 = load ptr, ptr %4, align 8
  ret ptr %71
}