; Function Attrs: mustprogress nofree nounwind willreturn memory(readwrite, inaccessiblemem: none) uwtable
define internal noundef ptr @_ZL21ucnvsel_next_encodingP12UEnumerationPiP10UErrorCode(ptr noundef readonly captures(none) %0, ptr noundef writeonly %1, ptr noundef readonly captures(none) %2) #10 {
  %4 = load i32, ptr %2, align 4, !tbaa !3
  %5 = icmp slt i32 %4, 1
  br i1 %5, label %6, label %29

6:                                                ; preds = %3
  %7 = getelementptr inbounds nuw i8, ptr %0, i64 8
  %8 = load ptr, ptr %7, align 8, !tbaa !71
  %9 = getelementptr inbounds nuw i8, ptr %8, i64 10
  %10 = load i16, ptr %9, align 2, !tbaa !64
  %11 = getelementptr inbounds nuw i8, ptr %8, i64 8
  %12 = load i16, ptr %11, align 8, !tbaa !65
  %.not14 = icmp slt i16 %10, %12
  br i1 %.not14, label %13, label %29

13:                                               ; preds = %6
  %14 = getelementptr inbounds nuw i8, ptr %8, i64 16
  %15 = load ptr, ptr %14, align 8, !tbaa !66
  %16 = getelementptr inbounds nuw i8, ptr %15, i64 24
  %17 = load ptr, ptr %16, align 8, !tbaa !11
  %18 = load ptr, ptr %8, align 8, !tbaa !62
  %19 = sext i16 %10 to i64
  %20 = getelementptr inbounds i16, ptr %18, i64 %19
  %21 = load i16, ptr %20, align 2, !tbaa !58
  %22 = sext i16 %21 to i64
  %23 = getelementptr inbounds ptr, ptr %17, i64 %22
  %24 = load ptr, ptr %23, align 8, !tbaa !19
  %25 = add nsw i16 %10, 1
  store i16 %25, ptr %9, align 2, !tbaa !64
  %.not15 = icmp eq ptr %1, null
  br i1 %.not15, label %29, label %26

26:                                               ; preds = %13
  %27 = tail call i64 @strlen(ptr noundef nonnull dereferenceable(1) %24) #17
  %28 = trunc i64 %27 to i32
  store i32 %28, ptr %1, align 4, !tbaa !29
  br label %29

29:                                               ; preds = %6, %26, %13, %3
  %.0 = phi ptr [ null, %3 ], [ null, %6 ], [ %24, %26 ], [ %24, %13 ]
  ret ptr %.0
}